; Function Attrs: nounwind uwtable
define range(i32 0, 2) i32 @BN_mod_add_quick(ptr noundef %0, ptr noundef readonly captures(none) %1, ptr noundef readonly captures(none) %2, ptr noundef readonly captures(none) %3) local_unnamed_addr #0 {
  %5 = tail call i32 @bn_mod_add_fixed_top(ptr noundef %0, ptr noundef %1, ptr noundef %2, ptr noundef %3)
  %.not = icmp eq i32 %5, 0
  br i1 %.not, label %7, label %6

6:                                                ; preds = %4
  tail call void @bn_correct_top(ptr noundef %0) #4
  br label %7

7:                                                ; preds = %6, %4
  ret i32 %5
}